; ModuleID = '32/1857.c'
source_filename = "32/1857.c"
target datalayout = "e-m:e-p270:32:32-p271:32:32-p272:64:64-i64:64-f80:128-n8:16:32:64-S128"
target triple = "x86_64-pc-linux-gnu"

@.str = private unnamed_addr constant [3 x i8] c"%d\00", align 1
@.str.1 = private unnamed_addr constant [3 x i8] c"%s\00", align 1
@.str.2 = private unnamed_addr constant [2 x i8] c"\0A\00", align 1

; Function Attrs: noinline nounwind uwtable
define dso_local void @main() #0 {
  %1 = alloca i32, align 4
  %2 = alloca i32, align 4
  %3 = alloca i32, align 4
  %4 = alloca i32, align 4
  %5 = alloca i32, align 4
  %6 = alloca i32, align 4
  %7 = alloca i32, align 4
  %8 = alloca i32, align 4
  %9 = alloca i8, align 1
  %10 = alloca [100 x i8], align 16
  %11 = alloca [100 x i8], align 16
  store i32 0, i32* %2, align 4
  store i32 0, i32* %1, align 4
  %12 = call i32 (i8*, ...) @__isoc99_scanf(i8* getelementptr inbounds ([3 x i8], [3 x i8]* @.str, i64 0, i64 0), i32* %7)
  store i32 1, i32* %8, align 4
  br label %13

13:                                               ; preds = %104, %0
  %14 = load i32, i32* %8, align 4
  %15 = load i32, i32* %7, align 4
  %16 = icmp sle i32 %14, %15
  br i1 %16, label %17, label %107

17:                                               ; preds = %13
  %18 = load i32, i32* %1, align 4
  %19 = icmp ne i32 %18, 0
  br i1 %19, label %20, label %23

20:                                               ; preds = %17
  %21 = call i32 @getchar()
  %22 = trunc i32 %21 to i8
  store i8 %22, i8* %9, align 1
  br label %24

23:                                               ; preds = %17
  store i32 1, i32* %1, align 4
  br label %24

24:                                               ; preds = %23, %20
  %25 = getelementptr inbounds [100 x i8], [100 x i8]* %10, i64 0, i64 0
  %26 = call i32 (i8*, ...) @__isoc99_scanf(i8* getelementptr inbounds ([3 x i8], [3 x i8]* @.str.1, i64 0, i64 0), i8* %25)
  %27 = getelementptr inbounds [100 x i8], [100 x i8]* %11, i64 0, i64 0
  %28 = call i32 (i8*, ...) @__isoc99_scanf(i8* getelementptr inbounds ([3 x i8], [3 x i8]* @.str.1, i64 0, i64 0), i8* %27)
  %29 = getelementptr inbounds [100 x i8], [100 x i8]* %10, i64 0, i64 0
  %30 = call i64 @strlen(i8* %29) #3
  %31 = trunc i64 %30 to i32
  store i32 %31, i32* %5, align 4
  %32 = getelementptr inbounds [100 x i8], [100 x i8]* %11, i64 0, i64 0
  %33 = call i64 @strlen(i8* %32) #3
  %34 = trunc i64 %33 to i32
  store i32 %34, i32* %6, align 4
  store i32 1, i32* %3, align 4
  br label %35

35:                                               ; preds = %92, %24
  %36 = load i32, i32* %3, align 4
  %37 = load i32, i32* %6, align 4
  %38 = icmp sle i32 %36, %37
  br i1 %38, label %39, label %95

39:                                               ; preds = %35
  %40 = load i32, i32* %5, align 4
  %41 = load i32, i32* %3, align 4
  %42 = sub nsw i32 %40, %41
  %43 = sext i32 %42 to i64
  %44 = getelementptr inbounds [100 x i8], [100 x i8]* %10, i64 0, i64 %43
  %45 = load i8, i8* %44, align 1
  %46 = sext i8 %45 to i32
  %47 = load i32, i32* %6, align 4
  %48 = load i32, i32* %3, align 4
  %49 = sub nsw i32 %47, %48
  %50 = sext i32 %49 to i64
  %51 = getelementptr inbounds [100 x i8], [100 x i8]* %11, i64 0, i64 %50
  %52 = load i8, i8* %51, align 1
  %53 = sext i8 %52 to i32
  %54 = sub nsw i32 %46, %53
  %55 = add nsw i32 %54, 48
  %56 = trunc i32 %55 to i8
  %57 = load i32, i32* %5, align 4
  %58 = load i32, i32* %3, align 4
  %59 = sub nsw i32 %57, %58
  %60 = sext i32 %59 to i64
  %61 = getelementptr inbounds [100 x i8], [100 x i8]* %10, i64 0, i64 %60
  store i8 %56, i8* %61, align 1
  %62 = load i32, i32* %5, align 4
  %63 = load i32, i32* %3, align 4
  %64 = sub nsw i32 %62, %63
  store i32 %64, i32* %4, align 4
  br label %65

65:                                               ; preds = %72, %39
  %66 = load i32, i32* %4, align 4
  %67 = sext i32 %66 to i64
  %68 = getelementptr inbounds [100 x i8], [100 x i8]* %10, i64 0, i64 %67
  %69 = load i8, i8* %68, align 1
  %70 = sext i8 %69 to i32
  %71 = icmp slt i32 %70, 48
  br i1 %71, label %72, label %91

72:                                               ; preds = %65
  %73 = load i32, i32* %4, align 4
  %74 = sext i32 %73 to i64
  %75 = getelementptr inbounds [100 x i8], [100 x i8]* %10, i64 0, i64 %74
  %76 = load i8, i8* %75, align 1
  %77 = sext i8 %76 to i32
  %78 = add nsw i32 %77, 10
  %79 = trunc i32 %78 to i8
  %80 = load i32, i32* %4, align 4
  %81 = sext i32 %80 to i64
  %82 = getelementptr inbounds [100 x i8], [100 x i8]* %10, i64 0, i64 %81
  store i8 %79, i8* %82, align 1
  %83 = load i32, i32* %4, align 4
  %84 = sub nsw i32 %83, 1
  %85 = sext i32 %84 to i64
  %86 = getelementptr inbounds [100 x i8], [100 x i8]* %10, i64 0, i64 %85
  %87 = load i8, i8* %86, align 1
  %88 = add i8 %87, -1
  store i8 %88, i8* %86, align 1
  %89 = load i32, i32* %4, align 4
  %90 = add nsw i32 %89, -1
  store i32 %90, i32* %4, align 4
  br label %65

91:                                               ; preds = %65
  br label %92

92:                                               ; preds = %91
  %93 = load i32, i32* %3, align 4
  %94 = add nsw i32 %93, 1
  store i32 %94, i32* %3, align 4
  br label %35

95:                                               ; preds = %35
  %96 = load i32, i32* %2, align 4
  %97 = icmp ne i32 %96, 0
  br i1 %97, label %98, label %100

98:                                               ; preds = %95
  %99 = call i32 (i8*, ...) @printf(i8* getelementptr inbounds ([2 x i8], [2 x i8]* @.str.2, i64 0, i64 0))
  br label %101

100:                                              ; preds = %95
  store i32 1, i32* %2, align 4
  br label %101

101:                                              ; preds = %100, %98
  %102 = getelementptr inbounds [100 x i8], [100 x i8]* %10, i64 0, i64 0
  %103 = call i32 (i8*, ...) @printf(i8* getelementptr inbounds ([3 x i8], [3 x i8]* @.str.1, i64 0, i64 0), i8* %102)
  br label %104

104:                                              ; preds = %101
  %105 = load i32, i32* %8, align 4
  %106 = add nsw i32 %105, 1
  store i32 %106, i32* %8, align 4
  br label %13

107:                                              ; preds = %13
  ret void
}

declare dso_local i32 @__isoc99_scanf(i8*, ...) #1

declare dso_local i32 @getchar() #1

; Function Attrs: nounwind readonly
declare dso_local i64 @strlen(i8*) #2

declare dso_local i32 @printf(i8*, ...) #1


!llvm.module.flags = !{!0}
!llvm.ident = !{!1}

!0 = !{i32 1, !"wchar_size", i32 4}
!1 = !{!"clang version 10.0.0-4ubuntu1 "}
