; ModuleID = 'source-C-CXX/31/1857.c'
source_filename = "source-C-CXX/31/1857.c"
target datalayout = "e-m:e-p270:32:32-p271:32:32-p272:64:64-i64:64-f80:128-n8:16:32:64-S128"
target triple = "x86_64-pc-linux-gnu"

%struct._IO_FILE = type { i32, i8*, i8*, i8*, i8*, i8*, i8*, i8*, i8*, i8*, i8*, i8*, %struct._IO_marker*, %struct._IO_FILE*, i32, i32, i64, i16, i8, [1 x i8], i8*, i64, %struct._IO_codecvt*, %struct._IO_wide_data*, %struct._IO_FILE*, i8*, i64, i32, [20 x i8] }
%struct._IO_marker = type opaque
%struct._IO_codecvt = type opaque
%struct._IO_wide_data = type opaque

@.str = private unnamed_addr constant [3 x i8] c"%d\00", align 1
@.str.1 = private unnamed_addr constant [3 x i8] c"%s\00", align 1
@stdin = external local_unnamed_addr global %struct._IO_FILE*, align 8

; Function Attrs: nofree nounwind sspstrong uwtable
define dso_local void @main() local_unnamed_addr #0 {
  %1 = alloca i32, align 4
  %2 = alloca [100 x i8], align 16
  %3 = alloca [100 x i8], align 16
  %4 = bitcast i32* %1 to i8*
  call void @llvm.lifetime.start.p0i8(i64 4, i8* nonnull %4) #5
  %5 = getelementptr inbounds [100 x i8], [100 x i8]* %2, i64 0, i64 0
  call void @llvm.lifetime.start.p0i8(i64 100, i8* nonnull %5) #5
  %6 = getelementptr inbounds [100 x i8], [100 x i8]* %3, i64 0, i64 0
  call void @llvm.lifetime.start.p0i8(i64 100, i8* nonnull %6) #5
  %7 = call i32 (i8*, ...) @__isoc99_scanf(i8* getelementptr inbounds ([3 x i8], [3 x i8]* @.str, i64 0, i64 0), i32* nonnull %1)
  %8 = load i32, i32* %1, align 4, !tbaa !5
  %9 = icmp slt i32 %8, 1
  br i1 %9, label %67, label %10

10:                                               ; preds = %0, %62
  %11 = phi i1 [ false, %62 ], [ true, %0 ]
  %12 = phi i32 [ %64, %62 ], [ 1, %0 ]
  br i1 %11, label %16, label %13

13:                                               ; preds = %10
  %14 = load %struct._IO_FILE*, %struct._IO_FILE** @stdin, align 8, !tbaa !9
  %15 = call i32 @getc(%struct._IO_FILE* %14) #5
  br label %16

16:                                               ; preds = %10, %13
  %17 = call i32 (i8*, ...) @__isoc99_scanf(i8* getelementptr inbounds ([3 x i8], [3 x i8]* @.str.1, i64 0, i64 0), i8* nonnull %5)
  %18 = call i32 (i8*, ...) @__isoc99_scanf(i8* getelementptr inbounds ([3 x i8], [3 x i8]* @.str.1, i64 0, i64 0), i8* nonnull %6)
  %19 = call i64 @strlen(i8* noundef nonnull %5) #6
  %20 = call i64 @strlen(i8* noundef nonnull %6) #6
  %21 = trunc i64 %20 to i32
  %22 = icmp slt i32 %21, 1
  br i1 %22, label %59, label %23

23:                                               ; preds = %16
  %24 = trunc i64 %19 to i32
  %25 = shl i64 %19, 32
  %26 = ashr exact i64 %25, 32
  %27 = shl i64 %20, 32
  %28 = ashr exact i64 %27, 32
  %29 = add i64 %20, 1
  %30 = and i64 %29, 4294967295
  br label %31

31:                                               ; preds = %23, %56
  %32 = phi i64 [ 1, %23 ], [ %57, %56 ]
  %33 = phi i32 [ %24, %23 ], [ %34, %56 ]
  %34 = add i32 %33, -1
  %35 = sub nsw i64 %26, %32
  %36 = getelementptr inbounds [100 x i8], [100 x i8]* %2, i64 0, i64 %35
  %37 = load i8, i8* %36, align 1, !tbaa !11
  %38 = sub nsw i64 %28, %32
  %39 = getelementptr inbounds [100 x i8], [100 x i8]* %3, i64 0, i64 %38
  %40 = load i8, i8* %39, align 1, !tbaa !11
  %41 = add i8 %37, 48
  %42 = sub i8 %41, %40
  store i8 %42, i8* %36, align 1, !tbaa !11
  %43 = icmp slt i8 %42, 48
  br i1 %43, label %44, label %56

44:                                               ; preds = %31
  %45 = sext i32 %34 to i64
  br label %46

46:                                               ; preds = %44, %46
  %47 = phi i64 [ %45, %44 ], [ %51, %46 ]
  %48 = phi i8 [ %42, %44 ], [ %54, %46 ]
  %49 = phi i8* [ %36, %44 ], [ %52, %46 ]
  %50 = add nsw i8 %48, 10
  store i8 %50, i8* %49, align 1, !tbaa !11
  %51 = add i64 %47, -1
  %52 = getelementptr inbounds [100 x i8], [100 x i8]* %2, i64 0, i64 %51
  %53 = load i8, i8* %52, align 1, !tbaa !11
  %54 = add i8 %53, -1
  store i8 %54, i8* %52, align 1, !tbaa !11
  %55 = icmp slt i8 %54, 48
  br i1 %55, label %46, label %56, !llvm.loop !12

56:                                               ; preds = %46, %31
  %57 = add nuw nsw i64 %32, 1
  %58 = icmp eq i64 %57, %30
  br i1 %58, label %59, label %31, !llvm.loop !14

59:                                               ; preds = %56, %16
  br i1 %11, label %62, label %60

60:                                               ; preds = %59
  %61 = call i32 @putchar(i32 10)
  br label %62

62:                                               ; preds = %59, %60
  %63 = call i32 (i8*, ...) @printf(i8* nonnull dereferenceable(1) getelementptr inbounds ([3 x i8], [3 x i8]* @.str.1, i64 0, i64 0), i8* nonnull %5)
  %64 = add nuw nsw i32 %12, 1
  %65 = load i32, i32* %1, align 4, !tbaa !5
  %66 = icmp slt i32 %12, %65
  br i1 %66, label %10, label %67, !llvm.loop !15

67:                                               ; preds = %62, %0
  call void @llvm.lifetime.end.p0i8(i64 100, i8* nonnull %6) #5
  call void @llvm.lifetime.end.p0i8(i64 100, i8* nonnull %5) #5
  call void @llvm.lifetime.end.p0i8(i64 4, i8* nonnull %4) #5
  ret void
}

; Function Attrs: argmemonly mustprogress nofree nosync nounwind willreturn
declare void @llvm.lifetime.start.p0i8(i64 immarg, i8* nocapture) #1

; Function Attrs: nofree nounwind
declare noundef i32 @__isoc99_scanf(i8* nocapture noundef readonly, ...) local_unnamed_addr #2

; Function Attrs: argmemonly mustprogress nofree nounwind readonly willreturn
declare i64 @strlen(i8* nocapture) local_unnamed_addr #3

; Function Attrs: nofree nounwind
declare noundef i32 @printf(i8* nocapture noundef readonly, ...) local_unnamed_addr #2

; Function Attrs: argmemonly mustprogress nofree nosync nounwind willreturn
declare void @llvm.lifetime.end.p0i8(i64 immarg, i8* nocapture) #1

; Function Attrs: nofree nounwind
declare noundef i32 @getc(%struct._IO_FILE* nocapture noundef) local_unnamed_addr #2

; Function Attrs: nofree nounwind
declare noundef i32 @putchar(i32 noundef) local_unnamed_addr #4


!llvm.module.flags = !{!0, !1, !2, !3}
!llvm.ident = !{!4}

!0 = !{i32 1, !"wchar_size", i32 4}
!1 = !{i32 7, !"PIC Level", i32 2}
!2 = !{i32 7, !"PIE Level", i32 2}
!3 = !{i32 7, !"uwtable", i32 1}
!4 = !{!"clang version 13.0.0"}
!5 = !{!6, !6, i64 0}
!6 = !{!"int", !7, i64 0}
!7 = !{!"omnipotent char", !8, i64 0}
!8 = !{!"Simple C/C++ TBAA"}
!9 = !{!10, !10, i64 0}
!10 = !{!"any pointer", !7, i64 0}
!11 = !{!7, !7, i64 0}
!12 = distinct !{!12, !13}
!13 = !{!"llvm.loop.mustprogress"}
!14 = distinct !{!14, !13}
!15 = distinct !{!15, !13}
